target datalayout = "e-m:e-p270:32:32-p271:32:32-p272:64:64-i64:64-i128:128-f80:128-n8:16:32:64-S128"
target triple = "x86_64-pc-linux-gnu"

%struct.ossl_qtx_st = type { ptr, ptr, %struct.ossl_qrl_enc_level_set_st, ptr, ptr, ptr, i64, %struct.ossl_list_st_txe, %struct.ossl_list_st_txe, i64, i64, ptr, i64, i64, i64, ptr, ptr, ptr, ptr, ptr, ptr }
%struct.ossl_qrl_enc_level_set_st = type { [4 x %struct.ossl_qrl_enc_level_st] }
%struct.ossl_qrl_enc_level_st = type { %struct.quic_hdr_protector_st, ptr, [2 x ptr], ptr, ptr, i64, i64, i32, i32, i8, i8, [2 x [16 x i8]], [64 x i8] }
%struct.quic_hdr_protector_st = type { ptr, ptr, ptr, ptr, i32 }
%struct.ossl_list_st_txe = type { ptr, ptr, i64 }

; Function Attrs: nounwind uwtable
define i64 @ossl_qtx_get_key_epoch(ptr noundef %0) #0 {
  %2 = alloca i64, align 8
  %3 = alloca ptr, align 8
  %4 = alloca ptr, align 8
  %5 = alloca i32, align 4
  store ptr %0, ptr %3, align 8, !tbaa !14
  call void @llvm.lifetime.start.p0(i64 8, ptr %4) #8
  %6 = load ptr, ptr %3, align 8, !tbaa !14
  %7 = getelementptr inbounds nuw %struct.ossl_qtx_st, ptr %6, i32 0, i32 2
  %8 = call ptr @ossl_qrl_enc_level_set_get(ptr noundef %7, i32 noundef 3, i32 noundef 1)
  store ptr %8, ptr %4, align 8, !tbaa !51
  %9 = load ptr, ptr %4, align 8, !tbaa !51
  %10 = icmp eq ptr %9, null
  br i1 %10, label %11, label %12

11:                                               ; preds = %1
  store i64 0, ptr %2, align 8
  store i32 1, ptr %5, align 4
  br label %16

12:                                               ; preds = %1
  %13 = load ptr, ptr %4, align 8, !tbaa !51
  %14 = getelementptr inbounds nuw %struct.ossl_qrl_enc_level_st, ptr %13, i32 0, i32 5
  %15 = load i64, ptr %14, align 8, !tbaa !105
  store i64 %15, ptr %2, align 8
  store i32 1, ptr %5, align 4
  br label %16

16:                                               ; preds = %12, %11
  call void @llvm.lifetime.end.p0(i64 8, ptr %4) #8
  %17 = load i64, ptr %2, align 8
  ret i64 %17
}