; Function Attrs: nounwind uwtable
define i64 @ossl_qtx_get_key_epoch(ptr noundef %0) local_unnamed_addr #0 {
  %2 = getelementptr inbounds nuw i8, ptr %0, i64 16
  %3 = tail call ptr @ossl_qrl_enc_level_set_get(ptr noundef nonnull %2, i32 noundef 3, i32 noundef 1) #11
  %4 = icmp eq ptr %3, null
  br i1 %4, label %8, label %5

5:                                                ; preds = %1
  %6 = getelementptr inbounds nuw i8, ptr %3, i64 80
  %7 = load i64, ptr %6, align 8, !tbaa !70
  br label %8

8:                                                ; preds = %1, %5
  %.0 = phi i64 [ %7, %5 ], [ 0, %1 ]
  ret i64 %.0
}